; Function Attrs: nounwind uwtable
define ptr @l_Lean_ForEachExprWhere_visit_go___rarg___lambda__2(ptr noundef %0, ptr noundef %1, ptr noundef %2, ptr noundef %3, ptr noundef %4, i8 noundef zeroext %5, ptr noundef %6, ptr noundef %7, ptr noundef %8, ptr noundef %9, ptr readnone captures(none) %10) local_unnamed_addr #0 {
  %12 = ptrtoint ptr %7 to i64
  %13 = and i64 %12, 1
  %.not = icmp eq i64 %13, 0
  br i1 %.not, label %14, label %lean_inc.exit38

14:                                               ; preds = %11
  %.val.i = load i32, ptr %7, align 4, !tbaa !4
  %15 = icmp sgt i32 %.val.i, 0
  br i1 %15, label %16, label %18, !prof !11

16:                                               ; preds = %14
  %17 = add nuw i32 %.val.i, 1
  store i32 %17, ptr %7, align 4, !tbaa !4
  br label %lean_inc.exit38

18:                                               ; preds = %14
  %.not.i = icmp eq i32 %.val.i, 0
  br i1 %.not.i, label %lean_inc.exit38, label %19

19:                                               ; preds = %18
  tail call void @lean_inc_ref_cold(ptr noundef nonnull %7) #3
  br label %lean_inc.exit38

lean_inc.exit38:                                  ; preds = %19, %18, %16, %11
  %20 = ptrtoint ptr %4 to i64
  %21 = and i64 %20, 1
  %.not54 = icmp eq i64 %21, 0
  br i1 %.not54, label %22, label %lean_inc.exit37

22:                                               ; preds = %lean_inc.exit38
  %.val.i39 = load i32, ptr %4, align 4, !tbaa !4
  %23 = icmp sgt i32 %.val.i39, 0
  br i1 %23, label %24, label %26, !prof !11

24:                                               ; preds = %22
  %25 = add nuw i32 %.val.i39, 1
  store i32 %25, ptr %4, align 4, !tbaa !4
  br label %lean_inc.exit37

26:                                               ; preds = %22
  %.not.i40 = icmp eq i32 %.val.i39, 0
  br i1 %.not.i40, label %lean_inc.exit37, label %27

27:                                               ; preds = %26
  tail call void @lean_inc_ref_cold(ptr noundef nonnull %4) #3
  br label %lean_inc.exit37

lean_inc.exit37:                                  ; preds = %27, %26, %24, %lean_inc.exit38
  %28 = ptrtoint ptr %3 to i64
  %29 = and i64 %28, 1
  %.not55 = icmp eq i64 %29, 0
  br i1 %.not55, label %30, label %lean_inc.exit36

30:                                               ; preds = %lean_inc.exit37
  %.val.i42 = load i32, ptr %3, align 4, !tbaa !4
  %31 = icmp sgt i32 %.val.i42, 0
  br i1 %31, label %32, label %34, !prof !11

32:                                               ; preds = %30
  %33 = add nuw i32 %.val.i42, 1
  store i32 %33, ptr %3, align 4, !tbaa !4
  br label %lean_inc.exit36

34:                                               ; preds = %30
  %.not.i43 = icmp eq i32 %.val.i42, 0
  br i1 %.not.i43, label %lean_inc.exit36, label %35

35:                                               ; preds = %34
  tail call void @lean_inc_ref_cold(ptr noundef nonnull %3) #3
  br label %lean_inc.exit36

lean_inc.exit36:                                  ; preds = %35, %34, %32, %lean_inc.exit37
  %36 = ptrtoint ptr %2 to i64
  %37 = and i64 %36, 1
  %.not56 = icmp eq i64 %37, 0
  br i1 %.not56, label %38, label %lean_inc.exit35

38:                                               ; preds = %lean_inc.exit36
  %.val.i45 = load i32, ptr %2, align 4, !tbaa !4
  %39 = icmp sgt i32 %.val.i45, 0
  br i1 %39, label %40, label %42, !prof !11

40:                                               ; preds = %38
  %41 = add nuw i32 %.val.i45, 1
  store i32 %41, ptr %2, align 4, !tbaa !4
  br label %lean_inc.exit35

42:                                               ; preds = %38
  %.not.i46 = icmp eq i32 %.val.i45, 0
  br i1 %.not.i46, label %lean_inc.exit35, label %43

43:                                               ; preds = %42
  tail call void @lean_inc_ref_cold(ptr noundef nonnull %2) #3
  br label %lean_inc.exit35

lean_inc.exit35:                                  ; preds = %43, %42, %40, %lean_inc.exit36
  %44 = ptrtoint ptr %1 to i64
  %45 = and i64 %44, 1
  %.not57 = icmp eq i64 %45, 0
  br i1 %.not57, label %46, label %lean_inc.exit34

46:                                               ; preds = %lean_inc.exit35
  %.val.i48 = load i32, ptr %1, align 4, !tbaa !4
  %47 = icmp sgt i32 %.val.i48, 0
  br i1 %47, label %48, label %50, !prof !11

48:                                               ; preds = %46
  %49 = add nuw i32 %.val.i48, 1
  store i32 %49, ptr %1, align 4, !tbaa !4
  br label %lean_inc.exit34

50:                                               ; preds = %46
  %.not.i49 = icmp eq i32 %.val.i48, 0
  br i1 %.not.i49, label %lean_inc.exit34, label %51

51:                                               ; preds = %50
  tail call void @lean_inc_ref_cold(ptr noundef nonnull %1) #3
  br label %lean_inc.exit34

lean_inc.exit34:                                  ; preds = %51, %50, %48, %lean_inc.exit35
  %52 = ptrtoint ptr %0 to i64
  %53 = and i64 %52, 1
  %.not58 = icmp eq i64 %53, 0
  br i1 %.not58, label %54, label %lean_inc.exit

54:                                               ; preds = %lean_inc.exit34
  %.val.i51 = load i32, ptr %0, align 4, !tbaa !4
  %55 = icmp sgt i32 %.val.i51, 0
  br i1 %55, label %56, label %58, !prof !11

56:                                               ; preds = %54
  %57 = add nuw i32 %.val.i51, 1
  store i32 %57, ptr %0, align 4, !tbaa !4
  br label %lean_inc.exit

58:                                               ; preds = %54
  %.not.i52 = icmp eq i32 %.val.i51, 0
  br i1 %.not.i52, label %lean_inc.exit, label %59

59:                                               ; preds = %58
  tail call void @lean_inc_ref_cold(ptr noundef nonnull %0) #3
  br label %lean_inc.exit

lean_inc.exit:                                    ; preds = %59, %58, %56, %lean_inc.exit34
  %60 = tail call ptr @l_Lean_ForEachExprWhere_visit_go___rarg(ptr noundef %0, ptr noundef %1, ptr noundef %2, ptr noundef %3, ptr noundef %4, i8 noundef zeroext %5, ptr noundef %6, ptr noundef %7)
  tail call void @lean_inc_heartbeat() #3
  %61 = tail call noalias ptr @mi_malloc_small(i64 noundef 88) #3
  %62 = icmp eq ptr %61, null
  br i1 %62, label %63, label %lean_alloc_closure.exit

63:                                               ; preds = %lean_inc.exit
  tail call void @lean_internal_panic_out_of_memory() #4
  unreachable

lean_alloc_closure.exit:                          ; preds = %lean_inc.exit
  %64 = zext i8 %5 to i64
  %65 = shl nuw nsw i64 %64, 1
  %66 = or disjoint i64 %65, 1
  %67 = inttoptr i64 %66 to ptr
  %68 = getelementptr inbounds nuw i8, ptr %61, i64 4
  store i32 1, ptr %61, align 4, !tbaa !4
  store i32 -184549288, ptr %68, align 4
  %69 = getelementptr inbounds nuw i8, ptr %61, i64 8
  store ptr @l_Lean_ForEachExprWhere_visit_go___rarg___lambda__1___boxed, ptr %69, align 8, !tbaa !9
  %70 = getelementptr inbounds nuw i8, ptr %61, i64 16
  store i16 9, ptr %70, align 8, !tbaa !15
  %71 = getelementptr inbounds nuw i8, ptr %61, i64 18
  store i16 8, ptr %71, align 2, !tbaa !15
  %72 = getelementptr inbounds nuw i8, ptr %61, i64 24
  store ptr %0, ptr %72, align 8, !tbaa !9
  %73 = getelementptr inbounds nuw i8, ptr %61, i64 32
  store ptr %1, ptr %73, align 8, !tbaa !9
  %74 = getelementptr inbounds nuw i8, ptr %61, i64 40
  store ptr %2, ptr %74, align 8, !tbaa !9
  %75 = getelementptr inbounds nuw i8, ptr %61, i64 48
  store ptr %3, ptr %75, align 8, !tbaa !9
  %76 = getelementptr inbounds nuw i8, ptr %61, i64 56
  store ptr %4, ptr %76, align 8, !tbaa !9
  %77 = getelementptr inbounds nuw i8, ptr %61, i64 64
  store ptr %67, ptr %77, align 8, !tbaa !9
  %78 = getelementptr inbounds nuw i8, ptr %61, i64 72
  store ptr %8, ptr %78, align 8, !tbaa !9
  %79 = getelementptr inbounds nuw i8, ptr %61, i64 80
  store ptr %7, ptr %79, align 8, !tbaa !9
  %80 = tail call ptr @lean_apply_4(ptr noundef %9, ptr noundef nonnull inttoptr (i64 1 to ptr), ptr noundef nonnull inttoptr (i64 1 to ptr), ptr noundef %60, ptr noundef nonnull %61) #3
  ret ptr %80
}